; Function Attrs: nounwind uwtable
define dso_local ptr @guc_strdup(i32 noundef %0, ptr noundef readonly captures(none) %1) local_unnamed_addr #0 {
  %3 = tail call i64 @strlen(ptr noundef nonnull dereferenceable(1) %1) #30
  %4 = add i64 %3, 1
  %5 = load ptr, ptr @GUCMemoryContext, align 8
  %6 = tail call ptr @MemoryContextAllocExtended(ptr noundef %5, i64 noundef %4, i32 noundef 2) #29
  %7 = icmp eq ptr %6, null
  br i1 %7, label %8, label %guc_malloc.exit, !prof !16

8:                                                ; preds = %2
  %9 = tail call zeroext i1 @errstart(i32 noundef %0, ptr noundef null) #29
  br i1 %9, label %10, label %guc_malloc.exit.thread

10:                                               ; preds = %8
  %11 = tail call i32 @errcode(i32 noundef 8389) #29
  %12 = tail call i32 (ptr, ...) @errmsg(ptr noundef nonnull @.str.14) #29
  tail call void @errfinish(ptr noundef nonnull @.str.3, i32 noundef 647, ptr noundef nonnull @__func__.guc_malloc) #29
  br label %guc_malloc.exit.thread

guc_malloc.exit:                                  ; preds = %2
  tail call void @llvm.memcpy.p0.p0.i64(ptr nonnull align 1 %6, ptr nonnull align 1 %1, i64 %4, i1 false)
  br label %guc_malloc.exit.thread

guc_malloc.exit.thread:                           ; preds = %10, %8, %guc_malloc.exit
  ret ptr %6
}